; Function Attrs: mustprogress nofree norecurse nosync nounwind sspstrong willreturn memory(read, inaccessiblemem: none) uwtable
define internal range(i64 0, 21) i64 @builtin_inline_class_69(ptr readnone captures(none) %0, i64 noundef %1) #5 {
  %3 = icmp eq i64 %1, 0
  %4 = and i64 %1, 7
  %5 = icmp ne i64 %4, 0
  %6 = or i1 %3, %5
  br i1 %6, label %RB_OBJ_FROZEN.exit.thread.i, label %RB_FL_ABLE.exit.i.i

RB_FL_ABLE.exit.i.i:                              ; preds = %2
  %7 = inttoptr i64 %1 to ptr
  %8 = load i64, ptr %7, align 8, !tbaa !24
  %.fr3.i = freeze i64 %8
  %9 = and i64 %.fr3.i, 31
  %.not.i.i = icmp ne i64 %9, 27
  %10 = and i64 %.fr3.i, 2048
  %.not.i = icmp eq i64 %10, 0
  %or.cond.i = and i1 %.not.i.i, %.not.i
  br i1 %or.cond.i, label %rb_obj_frozen_p.exit, label %RB_OBJ_FROZEN.exit.thread.i

RB_OBJ_FROZEN.exit.thread.i:                      ; preds = %RB_FL_ABLE.exit.i.i, %2
  br label %rb_obj_frozen_p.exit

rb_obj_frozen_p.exit:                             ; preds = %RB_FL_ABLE.exit.i.i, %RB_OBJ_FROZEN.exit.thread.i
  %11 = phi i64 [ 20, %RB_OBJ_FROZEN.exit.thread.i ], [ 0, %RB_FL_ABLE.exit.i.i ]
  ret i64 %11
}